; ModuleID = '16/943.c'
source_filename = "16/943.c"
target datalayout = "e-m:e-p270:32:32-p271:32:32-p272:64:64-i64:64-f80:128-n8:16:32:64-S128"
target triple = "x86_64-pc-linux-gnu"

@.str = private unnamed_addr constant [3 x i8] c"%c\00", align 1

; Function Attrs: noinline nounwind uwtable
define dso_local void @main() #0 {
  %1 = alloca [5 x i8], align 1
  %2 = alloca i32, align 4
  %3 = alloca i32, align 4
  store i32 0, i32* %2, align 4
  br label %4

4:                                                ; preds = %32, %0
  %5 = load i32, i32* %2, align 4
  %6 = icmp slt i32 %5, 5
  br i1 %6, label %7, label %35

7:                                                ; preds = %4
  %8 = load i32, i32* %2, align 4
  %9 = sext i32 %8 to i64
  %10 = getelementptr inbounds [5 x i8], [5 x i8]* %1, i64 0, i64 %9
  %11 = call i32 (i8*, ...) @__isoc99_scanf(i8* getelementptr inbounds ([3 x i8], [3 x i8]* @.str, i64 0, i64 0), i8* %10)
  %12 = load i32, i32* %2, align 4
  %13 = sext i32 %12 to i64
  %14 = getelementptr inbounds [5 x i8], [5 x i8]* %1, i64 0, i64 %13
  %15 = load i8, i8* %14, align 1
  %16 = sext i8 %15 to i32
  %17 = icmp eq i32 %16, 10
  br i1 %17, label %18, label %31

18:                                               ; preds = %7
  %19 = load i32, i32* %2, align 4
  store i32 %19, i32* %3, align 4
  br label %20

20:                                               ; preds = %27, %18
  %21 = load i32, i32* %3, align 4
  %22 = icmp slt i32 %21, 5
  br i1 %22, label %23, label %30

23:                                               ; preds = %20
  %24 = load i32, i32* %3, align 4
  %25 = sext i32 %24 to i64
  %26 = getelementptr inbounds [5 x i8], [5 x i8]* %1, i64 0, i64 %25
  store i8 0, i8* %26, align 1
  br label %27

27:                                               ; preds = %23
  %28 = load i32, i32* %3, align 4
  %29 = add nsw i32 %28, 1
  store i32 %29, i32* %3, align 4
  br label %20

30:                                               ; preds = %20
  br label %35

31:                                               ; preds = %7
  br label %32

32:                                               ; preds = %31
  %33 = load i32, i32* %2, align 4
  %34 = add nsw i32 %33, 1
  store i32 %34, i32* %2, align 4
  br label %4

35:                                               ; preds = %30, %4
  store i32 4, i32* %2, align 4
  br label %36

36:                                               ; preds = %54, %35
  %37 = load i32, i32* %2, align 4
  %38 = icmp sge i32 %37, 0
  br i1 %38, label %39, label %57

39:                                               ; preds = %36
  %40 = load i32, i32* %2, align 4
  %41 = sext i32 %40 to i64
  %42 = getelementptr inbounds [5 x i8], [5 x i8]* %1, i64 0, i64 %41
  %43 = load i8, i8* %42, align 1
  %44 = sext i8 %43 to i32
  %45 = icmp ne i32 %44, 0
  br i1 %45, label %46, label %53

46:                                               ; preds = %39
  %47 = load i32, i32* %2, align 4
  %48 = sext i32 %47 to i64
  %49 = getelementptr inbounds [5 x i8], [5 x i8]* %1, i64 0, i64 %48
  %50 = load i8, i8* %49, align 1
  %51 = sext i8 %50 to i32
  %52 = call i32 (i8*, ...) @printf(i8* getelementptr inbounds ([3 x i8], [3 x i8]* @.str, i64 0, i64 0), i32 %51)
  br label %53

53:                                               ; preds = %46, %39
  br label %54

54:                                               ; preds = %53
  %55 = load i32, i32* %2, align 4
  %56 = add nsw i32 %55, -1
  store i32 %56, i32* %2, align 4
  br label %36

57:                                               ; preds = %36
  ret void
}

declare dso_local i32 @__isoc99_scanf(i8*, ...) #1

declare dso_local i32 @printf(i8*, ...) #1


!llvm.module.flags = !{!0}
!llvm.ident = !{!1}

!0 = !{i32 1, !"wchar_size", i32 4}
!1 = !{!"clang version 10.0.0-4ubuntu1 "}
